target datalayout = "e-m:e-p270:32:32-p271:32:32-p272:64:64-i64:64-i128:128-f80:128-n8:16:32:64-S128"
target triple = "x86_64-pc-linux-gnu"

@program_name = external constant [0 x i8], align 1
@.str.2 = private unnamed_addr constant [1 x i8] zeroinitializer, align 1
@.str.14 = private unnamed_addr constant [2 x i8] c"\0A\00", align 1
@.str.73 = private unnamed_addr constant [3 x i8] c"  \00", align 1
@.str.74 = private unnamed_addr constant [32 x i8] c"%s version N-119596-gfd18ae88ae\00", align 1
@.str.75 = private unnamed_addr constant [43 x i8] c" Copyright (c) %d-%d the FFmpeg developers\00", align 1
@program_birth_year = external constant i32, align 4
@.str.76 = private unnamed_addr constant [17 x i8] c"%sbuilt with %s\0A\00", align 1
@.str.77 = private unnamed_addr constant [86 x i8] c"Ubuntu clang version 21.0.0 (++20250518081747+1b41599cf897-1~exp1~20250518201910.917)\00", align 1

; Function Attrs: nounwind uwtable
define internal void @print_program_info(i32 noundef %0, i32 noundef %1) #0 {
  %3 = alloca i32, align 4
  %4 = alloca i32, align 4
  %5 = alloca ptr, align 8
  store i32 %0, ptr %3, align 4, !tbaa !10
  store i32 %1, ptr %4, align 4, !tbaa !10
  call void @llvm.lifetime.start.p0(i64 8, ptr %5) #11
  %6 = load i32, ptr %3, align 4, !tbaa !10
  %7 = and i32 %6, 1
  %8 = icmp ne i32 %7, 0
  %9 = select i1 %8, ptr @.str.73, ptr @.str.2
  store ptr %9, ptr %5, align 8, !tbaa !8
  %10 = load i32, ptr %4, align 4, !tbaa !10
  call void (ptr, i32, ptr, ...) @av_log(ptr noundef null, i32 noundef %10, ptr noundef @.str.74, ptr noundef @program_name)
  %11 = load i32, ptr %3, align 4, !tbaa !10
  %12 = and i32 %11, 8
  %13 = icmp ne i32 %12, 0
  br i1 %13, label %14, label %17

14:                                               ; preds = %2
  %15 = load i32, ptr %4, align 4, !tbaa !10
  %16 = load i32, ptr @program_birth_year, align 4, !tbaa !10
  call void (ptr, i32, ptr, ...) @av_log(ptr noundef null, i32 noundef %15, ptr noundef @.str.75, i32 noundef %16, i32 noundef 2025)
  br label %17

17:                                               ; preds = %14, %2
  %18 = load i32, ptr %4, align 4, !tbaa !10
  call void (ptr, i32, ptr, ...) @av_log(ptr noundef null, i32 noundef %18, ptr noundef @.str.14)
  %19 = load i32, ptr %4, align 4, !tbaa !10
  %20 = load ptr, ptr %5, align 8, !tbaa !8
  call void (ptr, i32, ptr, ...) @av_log(ptr noundef null, i32 noundef %19, ptr noundef @.str.76, ptr noundef %20, ptr noundef @.str.77)
  %21 = load i32, ptr %4, align 4, !tbaa !10
  %22 = load ptr, ptr %5, align 8, !tbaa !8
  call void (ptr, i32, ptr, ...) @av_log(ptr noundef null, i32 noundef %21, ptr noundef @.str.78, ptr noundef %22)
  call void @llvm.lifetime.end.p0(i64 8, ptr %5) #11
  ret void
}

; Function Attrs: nounwind uwtable
define i32 @show_version(ptr noundef %0, ptr noundef %1, ptr noundef %2) #0 {
  %4 = alloca ptr, align 8
  %5 = alloca ptr, align 8
  %6 = alloca ptr, align 8
  store ptr %0, ptr %4, align 8, !tbaa !4
  store ptr %1, ptr %5, align 8, !tbaa !8
  store ptr %2, ptr %6, align 8, !tbaa !8
  call void @av_log_set_callback(ptr noundef @log_callback_help)
  call void @print_program_info(i32 noundef 8, i32 noundef 32)
  call void @print_all_libs_info(i32 noundef 2, i32 noundef 32)
  ret i32 0
}