; Function Attrs: nounwind uwtable
define noundef i32 @show_version(ptr noundef readnone captures(none) %0, ptr noundef readnone captures(none) %1, ptr noundef readnone captures(none) %2) local_unnamed_addr #2 {
  tail call void @av_log_set_callback(ptr noundef nonnull @log_callback_help) #17
  tail call void (ptr, i32, ptr, ...) @av_log(ptr noundef null, i32 noundef 32, ptr noundef nonnull @.str.74, ptr noundef nonnull @program_name) #17
  %4 = load i32, ptr @program_birth_year, align 4, !tbaa !4
  tail call void (ptr, i32, ptr, ...) @av_log(ptr noundef null, i32 noundef 32, ptr noundef nonnull @.str.75, i32 noundef %4, i32 noundef 2025) #17
  tail call void (ptr, i32, ptr, ...) @av_log(ptr noundef null, i32 noundef 32, ptr noundef nonnull @.str.14) #17
  tail call void (ptr, i32, ptr, ...) @av_log(ptr noundef null, i32 noundef 32, ptr noundef nonnull @.str.76, ptr noundef nonnull @.str.2, ptr noundef nonnull @.str.77) #17
  tail call void (ptr, i32, ptr, ...) @av_log(ptr noundef null, i32 noundef 32, ptr noundef nonnull @.str.78, ptr noundef nonnull @.str.2) #17
  tail call fastcc void @print_all_libs_info(i32 noundef 2)
  ret i32 0
}